(dp0
I9112
ccopy_reg
_reconstructor
p1
(c__main__
RadioStation
p2
c__builtin__
object
p3
Ntp4
Rp5
(dp6
S'url'
p7
Vhttp://mp3channels.webradio.rockantenne.de/rockantenne
p8
sS'fav'
p9
I01
sS'name'
p10
VROCK ANTENNE
p11
sS'id'
p12
I9112
sbs.